# Source: Inline/inline-target-features.riscv64-unknown-linux-gnu_inline.ll
# Function: qux
# src = pre-opt (qux), tgt = post-opt (qux)
# Triple: riscv64-unknown-linux-gnu, Attrs: none
#

	.globl	src                             # -- Begin function src
	.p2align	2
	.type	src,@function
src:                                    # @src
	.cfi_startproc
# %bb.0:                                # %entry
	addi	sp, sp, -16
	.cfi_def_cfa_offset 16
	sd	ra, 8(sp)                       # 8-byte Folded Spill
	.cfi_offset ra, -8
	call	bar
	ld	ra, 8(sp)                       # 8-byte Folded Reload
	.cfi_restore ra
	addi	sp, sp, 16
	.cfi_def_cfa_offset 0
	ret
.Lfunc_end2:
	.size	src, .Lfunc_end2-src
	.cfi_endproc
                                        # -- End function

	.globl	tgt                             # -- Begin function tgt
	.p2align	2
	.type	tgt,@function
tgt:                                    # @tgt
	.cfi_startproc
# %bb.0:                                # %entry
	addi	sp, sp, -16
	.cfi_def_cfa_offset 16
	sd	ra, 8(sp)                       # 8-byte Folded Spill
	.cfi_offset ra, -8
	call	bar
	ld	ra, 8(sp)                       # 8-byte Folded Reload
	.cfi_restore ra
	addi	sp, sp, 16
	.cfi_def_cfa_offset 0
	ret
.Lfunc_end2:
	.size	tgt, .Lfunc_end2-tgt
	.cfi_endproc
                                        # -- End function
