# Source: LoopVectorize/tail-folding-div.riscv64__v_loop-vectorize_IF-EVL.ll
# Function: test_udiv
# src = pre-opt (test_udiv), tgt = post-opt (test_udiv)
# Triple: riscv64, Attrs: +v
#

                                        # -- End function
	.globl	src                             # -- Begin function src
	.p2align	2
	.type	src,@function
src:                                    # @src
	.cfi_startproc
# %bb.0:                                # %loop.preheader
	addi	sp, sp, -64
	.cfi_def_cfa_offset 64
	sd	ra, 56(sp)                      # 8-byte Folded Spill
	.cfi_offset ra, -8
	sd	a2, 24(sp)                      # 8-byte Folded Spill
	sd	a1, 32(sp)                      # 8-byte Folded Spill
	sd	a0, 40(sp)                      # 8-byte Folded Spill
	li	a0, 0
	sd	a0, 48(sp)                      # 8-byte Folded Spill
	j	.LBB5_1
.LBB5_1:                                # %loop
                                        # =>This Inner Loop Header: Depth=1
	ld	a2, 48(sp)                      # 8-byte Folded Reload
	ld	a1, 32(sp)                      # 8-byte Folded Reload
	ld	a0, 40(sp)                      # 8-byte Folded Reload
	sd	a2, 16(sp)                      # 8-byte Folded Spill
	slli	a2, a2, 3
	sd	a2, 8(sp)                       # 8-byte Folded Spill
	add	a0, a0, a2
	ld	a0, 0(a0)
	add	a1, a1, a2
	ld	a1, 0(a1)
	call	__udivdi3
	ld	a3, 8(sp)                       # 8-byte Folded Reload
	ld	a2, 24(sp)                      # 8-byte Folded Reload
	mv	a1, a0
	ld	a0, 16(sp)                      # 8-byte Folded Reload
	add	a2, a2, a3
	sd	a1, 0(a2)
	addi	a0, a0, 1
	li	a1, 1024
	mv	a2, a0
	sd	a2, 48(sp)                      # 8-byte Folded Spill
	bne	a0, a1, .LBB5_1
	j	.LBB5_2
.LBB5_2:                                # %exit
	ld	ra, 56(sp)                      # 8-byte Folded Reload
	.cfi_restore ra
	addi	sp, sp, 64
	.cfi_def_cfa_offset 0
	ret
.Lfunc_end5:
	.size	src, .Lfunc_end5-src
	.cfi_endproc
                                        # -- End function

                                        # -- End function
	.globl	tgt                             # -- Begin function tgt
	.p2align	2
	.type	tgt,@function
tgt:                                    # @tgt
	.cfi_startproc
# %bb.0:                                # %loop.preheader
	addi	sp, sp, -48
	.cfi_def_cfa_offset 48
	sd	a2, 24(sp)                      # 8-byte Folded Spill
	sd	a1, 32(sp)                      # 8-byte Folded Spill
	sd	a0, 40(sp)                      # 8-byte Folded Spill
	j	.LBB5_1
.LBB5_1:                                # %vector.ph
	li	a0, 1024
	li	a1, 0
	sd	a1, 8(sp)                       # 8-byte Folded Spill
	sd	a0, 16(sp)                      # 8-byte Folded Spill
	j	.LBB5_2
.LBB5_2:                                # %vector.body
                                        # =>This Inner Loop Header: Depth=1
	ld	a0, 16(sp)                      # 8-byte Folded Reload
	ld	a1, 8(sp)                       # 8-byte Folded Reload
	ld	a3, 24(sp)                      # 8-byte Folded Reload
	ld	a5, 32(sp)                      # 8-byte Folded Reload
	ld	a6, 40(sp)                      # 8-byte Folded Reload
	vsetvli	a2, a0, e8, mf4, ta, ma
	slli	a4, a1, 3
	add	a6, a6, a4
                                        # implicit-def: $v10m2
	vsetvli	zero, a2, e64, m2, tu, ma
	vle64.v	v10, (a6)
	add	a5, a5, a4
                                        # implicit-def: $v12m2
	vsetvli	zero, a2, e64, m2, tu, ma
	vle64.v	v12, (a5)
                                        # implicit-def: $v8m2
	vsetvli	zero, a2, e64, m2, ta, ma
	vdivu.vv	v8, v10, v12
	add	a3, a3, a4
	vsetvli	zero, a2, e64, m2, ta, ma
	vse64.v	v8, (a3)
	add	a1, a2, a1
	sub	a0, a0, a2
	sd	a1, 8(sp)                       # 8-byte Folded Spill
	mv	a1, a0
	sd	a1, 16(sp)                      # 8-byte Folded Spill
	bnez	a0, .LBB5_2
	j	.LBB5_3
.LBB5_3:                                # %middle.block
	j	.LBB5_4
.LBB5_4:                                # %exit
	addi	sp, sp, 48
	.cfi_def_cfa_offset 0
	ret
.Lfunc_end5:
	.size	tgt, .Lfunc_end5-tgt
	.cfi_endproc
                                        # -- End function
