# Source: InstCombine/libcall-arg-exts.riscv64_instcombine.ll
# Function: fun3
# src = pre-opt (fun3), tgt = post-opt (fun3)
# Triple: riscv64, Attrs: none
#

                                        # -- End function
	.globl	src                             # -- Begin function src
	.p2align	2
	.type	src,@function
src:                                    # @src
	.cfi_startproc
# %bb.0:
	addi	sp, sp, -16
	.cfi_def_cfa_offset 16
	sd	ra, 8(sp)                       # 8-byte Folded Spill
	.cfi_offset ra, -8
	call	__floatunsitf
	call	exp2l
	ld	ra, 8(sp)                       # 8-byte Folded Reload
	.cfi_restore ra
	addi	sp, sp, 16
	.cfi_def_cfa_offset 0
	ret
.Lfunc_end2:
	.size	src, .Lfunc_end2-src
	.cfi_endproc
                                        # -- End function

                                        # -- End function
	.globl	tgt                             # -- Begin function tgt
	.p2align	2
	.type	tgt,@function
tgt:                                    # @tgt
	.cfi_startproc
# %bb.0:
	addi	sp, sp, -16
	.cfi_def_cfa_offset 16
	sd	ra, 8(sp)                       # 8-byte Folded Spill
	.cfi_offset ra, -8
	mv	a2, a0
	lui	a0, 16383
	slli	a1, a0, 36
	li	a0, 0
	call	ldexpl
	ld	ra, 8(sp)                       # 8-byte Folded Reload
	.cfi_restore ra
	addi	sp, sp, 16
	.cfi_def_cfa_offset 0
	ret
.Lfunc_end2:
	.size	tgt, .Lfunc_end2-tgt
	.cfi_endproc
                                        # -- End function
