# Source: InstCombine/memcmp.riscv64-unknown-linux-gnu_instcombine.ll
# Function: test_bcmp
# src = pre-opt (test_bcmp), tgt = post-opt (test_bcmp)
# Triple: riscv64-unknown-linux-gnu, Attrs: none
#

	.globl	src                             # -- Begin function src
	.p2align	2
	.type	src,@function
src:                                    # @src
	.cfi_startproc
# %bb.0:
	addi	sp, sp, -16
	.cfi_def_cfa_offset 16
	sd	ra, 8(sp)                       # 8-byte Folded Spill
	.cfi_offset ra, -8
	call	memcmp
	seqz	a0, a0
	ld	ra, 8(sp)                       # 8-byte Folded Reload
	.cfi_restore ra
	addi	sp, sp, 16
	.cfi_def_cfa_offset 0
	ret
.Lfunc_end0:
	.size	src, .Lfunc_end0-src
	.cfi_endproc
                                        # -- End function

	.globl	tgt                             # -- Begin function tgt
	.p2align	2
	.type	tgt,@function
tgt:                                    # @tgt
	.cfi_startproc
# %bb.0:
	addi	sp, sp, -16
	.cfi_def_cfa_offset 16
	sd	ra, 8(sp)                       # 8-byte Folded Spill
	.cfi_offset ra, -8
	call	bcmp
	seqz	a0, a0
	ld	ra, 8(sp)                       # 8-byte Folded Reload
	.cfi_restore ra
	addi	sp, sp, 16
	.cfi_def_cfa_offset 0
	ret
.Lfunc_end0:
	.size	tgt, .Lfunc_end0-tgt
	.cfi_endproc
                                        # -- End function
